; Function Attrs: nounwind uwtable
define dso_local i64 @setTypeSize(ptr noundef readonly captures(none) %0) local_unnamed_addr #0 {
  %2 = load i32, ptr %0, align 8
  %3 = lshr i32 %2, 4
  %4 = and i32 %3, 15
  switch i32 %4, label %22 [
    i32 2, label %5
    i32 6, label %13
    i32 11, label %18
  ]

5:                                                ; preds = %1
  %6 = getelementptr inbounds nuw i8, ptr %0, i64 8
  %7 = load ptr, ptr %6, align 8, !tbaa !38
  %8 = getelementptr inbounds nuw i8, ptr %7, i64 24
  %9 = load i64, ptr %8, align 8, !tbaa !50
  %10 = getelementptr inbounds nuw i8, ptr %7, i64 32
  %11 = load i64, ptr %10, align 8, !tbaa !50
  %12 = add i64 %11, %9
  br label %23

13:                                               ; preds = %1
  %14 = getelementptr inbounds nuw i8, ptr %0, i64 8
  %15 = load ptr, ptr %14, align 8, !tbaa !38
  %16 = tail call i32 @intsetLen(ptr noundef %15) #10
  %17 = zext i32 %16 to i64
  br label %23

18:                                               ; preds = %1
  %19 = getelementptr inbounds nuw i8, ptr %0, i64 8
  %20 = load ptr, ptr %19, align 8, !tbaa !38
  %21 = tail call i64 @lpLength(ptr noundef %20) #10
  br label %23

22:                                               ; preds = %1
  tail call void (ptr, i32, ptr, ...) @_serverPanic(ptr noundef nonnull @.str.1, i32 noundef 471, ptr noundef nonnull @.str.3) #10
  tail call void @abort() #11
  unreachable

23:                                               ; preds = %18, %13, %5
  %.0 = phi i64 [ %12, %5 ], [ %17, %13 ], [ %21, %18 ]
  ret i64 %.0
}